Logging to file "run.log"
Logging to file "run.log" at Fri Feb 12 13:49:31 2021
S:	000000

HALT instruction 102077, P: 77712 (NOP)

HALT instruction 102077, P: 77712 (NOP)
PTP: creating new file
 PAGE 0001


0001                ASMB,R,L,B
**  NO ERRORS*






























































HALT instruction 102011, P: 02074 (SZB)
 PAGE 0002 #01


0001                ASMB,R,L,B
0002********************************************************* 
0003*     SCOP3  DISPLAYS ON A X-Y SCOPE 256 POINTS WHICH 
0004*            START (ISKIP) FROM THE FIRST WORD OF THE 
0005*            BUFFER IDATA, AND DISPLAYS A CURSER (ICURS)
0006*            CHANNELS FROM THE LEFT EDGE OF THE SCREEN
0007* 
0008*     SCOP3 - ENTERS THROUGH  SCOP3 -- INITIATES
0009*                   AND       SCP3T -- TERMINATES 
0010* 
0011*     FORTRAN CALL
0012*          DIMENSION IDATA
0013*            .
0014*            .
0015*          CALL SCOP3(ISKIP,ICURS,IDATA)
0016*                     ISKIP=STARTING POINT FOR DISPLAY
0017*                     ICURS=LOCATION OF CURSER
0018*                           CURSER IS TURNED OFF WITH ICURS=-1
0019*                     IDATA=BUFFERED DATA 
0020*            .
0021*            .
0022*         CALL SCP3T    TURNS OFF DISPLAY 
0023******************************************************* 
0024  00000               NAM SCOP3,7 
0025                      ENT SCOP3,SCP3T 
0026                      EXT .ENTR 
0027  00031         LINK  EQU 31B 
0028  00017         IO    EQU 17B 
0029  00000 000000  ISKIP NOP 
0030  00001 000000  CURS  NOP 
0031  00002 000000  IDATA NOP 
0032  00003 000000  SCOP3 NOP 
0033  00004 016001X       JSB .ENTR 
0034  00005 000000R       DEF ISKIP 
0035* 
0036  00006 062023R       LDA LK
0037  00007 070031        STA LINK
0038* 
0039  00010 103717        STC IO,C
0040  00011 062024R       LDA IJSB
0041  00012 070017        STA IO
0042  00013 126003R       JMP SCOP3,I 
0043* 
0044  00014 000000  SCP3T NOP 
0045  00015 016001X       JSB .ENTR 
0046  00016 000014R       DEF SCP3T 
0047  00017 106717        CLC IO
0048  00020 062113R       LDA SAVE
0049  00021 070017        STA IO
0050  00022 126014R       JMP SCP3T,I 
0051* 
0052  00023 000025R LK    DEF CONT
0053  00024 114031  IJSB  JSB LINK,I
0054* 
0055  00025 000000  CONT  NOP 
0056  00026 103100        CLF 0 
0057* 






 PAGE 0003 #01


0058  00027 072115R       STA SAVEA 
0059  00030 076116R       STB SAVEB 
0060  00031 001520        ERA,ALS 
0061  00032 102201        SOC 
0062  00033 002004        INA 
0063  00034 072117R       STA SAVEO 
0064* 
0065  00035 062002R       LDA IDATA 
0066  00036 142000R       ADA ISKIP,I 
0067  00037 072120R       STA PNTR
0068* 
0069  00040 062122R       LDA M255
0070  00041 072121R       STA CNTR
0071* 
0072  00042 002400        CLA 
0073  00043 072114R       STA X 
0074* 
0075  00044 162120R J1    LDA PNTR,I
0076  00045 001727        ALF,ALF 
0077  00046 042114R       ADA X 
0078  00047 102617        OTA IO
0079  00050 036114R       ISZ X 
0080  00051 036120R       ISZ PNTR
0081  00052 036121R       ISZ CNTR
0082  00053 026044R       JMP J1
0083* 
0084  00054 166001R       LDB CURS,I
0085  00055 006020        SSB 
0086  00056 026072R       JMP J3
0087  00057 002400        CLA 
0088  00060 072114R       STA X 
0089  00061 062122R       LDA M255
0090  00062 072121R       STA CNTR
0091  00063 062114R J2    LDA X 
0092  00064 001727        ALF,ALF 
0093  00065 040001        ADA 1 
0094  00066 102617        OTA IO
0095  00067 036114R       ISZ X 
0096  00070 036121R       ISZ CNTR
0097  00071 026063R       JMP J2
0098* 
0099  00072 062117R J3    LDA SAVEO 
0100  00073 103101        CLO 
0101  00074 000036        SLA,ELA 
0102  00075 102101        STO 
0103  00076 062115R       LDA SAVEA 
0104  00077 106501        LIB 1 
0105  00100 006020        SSB 
0106  00101 026106R       JMP JEND
0107  00102 066116R       LDB SAVEB 
0108  00103 103117        CLF IO
0109  00104 102100  J4    STF 0 
0110  00105 126025R       JMP CONT,I
0111  00106 106717  JEND  CLC IO
0112  00107 066113R       LDB SAVE
0113  00110 074017        STB IO
0114  00111 066116R       LDB SAVEB 






 PAGE 0004 #01


0115  00112 026104R       JMP J4
0116* 
0117* 
0118  00113 114532  SAVE  OCT 114532
0119  00114 000000  X     BSS 1 
0120  00115 000000  SAVEA BSS 1 
0121  00116 000000  SAVEB BSS 1 
0122  00117 000000  SAVEO BSS 1 
0123  00120 000000  PNTR  BSS 1 
0124  00121 000000  CNTR  BSS 1 
0125  00122 177401  M255  DEC -255
0126                      END 
**  NO ERRORS*



















































HALT instruction 102077, P: 00100 (JMP 457,I)

***
*** End of ASMB
***

S:	000000

HALT instruction 102077, P: 77712 (NOP)

HALT instruction 102077, P: 77712 (NOP)
PTP: creating new file
FTN,B,L
      PROGRAM SCP3D 
      DIMENSION IDATA(1000) 
      WRITE(2,900) 
900   FORMAT("START POINTS CALCULATIONS")
      DX=.02
      X=-10.02
      DO 10 I=1,1000
      X=X+DX
   10 IDATA(I)=IFIX(SIN(8.*X)/X*20.)+60 
      ICURS=127 
      ISKIP=0 
   20 WRITE(2,901) 
901   FORMAT("CALL SCOP3")
      CALL SCOP3(ISKIP,ICURS,IDATA) 
      DO 40 I=1,740 
      ISKIP=I 
      DO 40 J=1,1000
   40 CONTINUE
      ISKIP=373 
      DO 42 I=1,255 
      ICURS=I 
      DO 42 J=1,2000
   42 CONTINUE
      GOTO 20
      END 
      END$

HALT instruction 102077, P: 00100 (JMP 53)

HALT instruction 102077, P: 77712 (NOP)
PTP: creating new file








































HALT instruction 102077, P: 00100 (JMP 57)

***
*** End of FTN
***


HALT instruction 102077, P: 77712 (NOP)
PTP: creating new file
S:	040000
 
 
  SCP3D
 
 
 02000 04232
 
 
*LOAD

HALT instruction 102001, P: 73714 (CLB)
S:	040000
 
 
  SCOP3
 
 
 04233 04355
 
 
*LOAD

HALT instruction 102001, P: 73714 (CLB)
S:	040004
 
 
  SICOS
 
 
 04356 04440
 
 
 00271 00317
 
 
  CHEBY
 
 
 04441 04516
 
 
 00320 00332
 
 
  ..FCM
 
 
 04517 04524
 
 
 00333 00334
 
 
  ..DLC
 
 
 04525 04535
 
 
 00335 00335
 
 
  FADSB
 
 
 04536 04672
 
 
 00336 00344
 
 
  FRMTR
 
 
 04673 07315
 
 
 00345 00632
 
 
  FDV  
 
 
 07316 07414
 
 
 00633 00637
 
 
  FMP  
 
 
 07415 07473
 
 
 00640 00644
 
 
  .IENT
 
 
 07474 07523
 
 
 00645 00651
 
 
  FLOAT
 
 
 07524 07530
 
 
  .PACK
 
 
 07531 07625
 
 
 00652 00661
 
 
  .ENTR
 
 
 07626 07665
 
 
 00662 00665
 
 
  MPY  
 
 
 07666 10004
 
 
 00666 00671
 
 
  DIV  
 
 
 10005 10074
 
 
 00672 00701
 
 
  DLDST
 
 
 10075 10135
 
 
 00702 00703
 
 
  GETAD
 
 
 10136 10151
 
 
 00704 00705
 
 
  IFIX 
 
 
 10152 10203
 
 
 00706 00710
 
 
  .STOP
 
 
 10204 10220
 
 
  .ERRR
 
 
 10221 10272
 
 
 00711 00712
 
 
  PWR2 
 
 
 10273 10312
 
 
 00713 00716
 
 
  .FLUN
 
 
 10313 10323
 
 
 00717 00720
 
 
  ENDIO
 
 
 10324 10332
 
 
  CLRIO
 
 
 10333 10337
 
 
*LST

HALT instruction 102000, P: 74011 (LIB 1)
.IOC.  74112
.SQT.  74067
.MEM.  74061
.BUFR  74263
HALT   74054
SCP3D  03751
CLRIO  10333
.DIO.  06667
.DTA.  07001
.DLD   10075
.DST   10110
..DLC  04525
.FAD   04536
.FMP   07415
SIN    04356
.FDV   07316
IFIX   10152
SCOP3  04236
.STOP  10204
SCP3T  04247
.ENTR  07626
COS    04433
..FCM  04517
.CHEB  04441
.ERRR  10221
.FSB   04541
.IENT  07474
.PWR2  10273
FLOAT  07524
.FLUN  10313
.PACK  07531
.BIO.  06746
.IAR.  06623
.IOI.  06547
.IOR.  06517
.RAR.  06577
OLDIO  05101
.MPY   07666
ENDIO  10324
.DIV   10005
ADRES  00704
GETAD  10136
 
 
 *LINKS
 01710 01777
 
 
*END

HALT instruction 102077, P: 74056 (JMP 74055)
S:	000000

***
*** Ready to run the program
***


HALT instruction 102077, P: 77712 (NOP)
S:	000000

START POINTS CALCULATIONS
CALL SCOP3
CALL SCOP3
CALL SCOP3
CALL SCOP3
CALL SCOP3
CALL SCOP3
CALL SCOP3
CALL SCOP3
